target datalayout = "e-m:e-p270:32:32-p271:32:32-p272:64:64-i64:64-i128:128-f80:128-n8:16:32:64-S128"
target triple = "x86_64-pc-linux-gnu"

%"class.cv::Mat" = type { i32, i32, i32, i32, ptr, ptr, ptr, ptr, ptr, ptr, %"struct.cv::MatSize", %"struct.cv::MatStep" }
%"struct.cv::MatSize" = type { ptr }
%"struct.cv::MatStep" = type { ptr, [2 x i64] }
%"class.cv::_InputArray" = type { i32, ptr, %"class.cv::Size_" }
%"class.cv::Size_" = type { i32, i32 }
%"class.cv::_OutputArray" = type { %"class.cv::_InputArray" }
%"class.cv::Cloning" = type { %"class.std::vector", %"class.std::vector", %"class.std::vector", %"class.cv::Mat", %"class.cv::Mat", %"class.cv::Mat", %"class.cv::Mat", %"class.cv::Mat", %"class.cv::Mat", %"class.std::vector.0", %"class.std::vector.0" }
%"class.std::vector" = type { %"struct.std::_Vector_base" }
%"struct.std::_Vector_base" = type { %"struct.std::_Vector_base<cv::Mat, std::allocator<cv::Mat>>::_Vector_impl" }
%"struct.std::_Vector_base<cv::Mat, std::allocator<cv::Mat>>::_Vector_impl" = type { %"struct.std::_Vector_base<cv::Mat, std::allocator<cv::Mat>>::_Vector_impl_data" }
%"struct.std::_Vector_base<cv::Mat, std::allocator<cv::Mat>>::_Vector_impl_data" = type { ptr, ptr, ptr }
%"class.std::vector.0" = type { %"struct.std::_Vector_base.1" }
%"struct.std::_Vector_base.1" = type { %"struct.std::_Vector_base<float, std::allocator<float>>::_Vector_impl" }
%"struct.std::_Vector_base<float, std::allocator<float>>::_Vector_impl" = type { %"struct.std::_Vector_base<float, std::allocator<float>>::_Vector_impl_data" }
%"struct.std::_Vector_base<float, std::allocator<float>>::_Vector_impl_data" = type { ptr, ptr, ptr }

; Function Attrs: mustprogress uwtable
define linkonce_odr hidden void @_ZN2cv11_InputArrayC2Ev(ptr noundef nonnull align 8 dereferenceable(24) %0) unnamed_addr #0 comdat align 2 {
  %2 = alloca ptr, align 8
  store ptr %0, ptr %2, align 8
  %3 = load ptr, ptr %2, align 8
  %4 = getelementptr inbounds %"class.cv::_InputArray", ptr %3, i32 0, i32 2
  call void @_ZN2cv5Size_IiEC2Ev(ptr noundef nonnull align 4 dereferenceable(8) %4)
  call void @_ZN2cv11_InputArray4initEiPKv(ptr noundef nonnull align 8 dereferenceable(24) %3, i32 noundef 0, ptr noundef null)
  ret void
}

; Function Attrs: mustprogress nounwind uwtable
define linkonce_odr hidden void @_ZN2cv11_InputArray4initEiPKv(ptr noundef nonnull align 8 dereferenceable(24) %0, i32 noundef %1, ptr noundef %2) #2 comdat align 2 {
  %4 = alloca ptr, align 8
  %5 = alloca i32, align 4
  %6 = alloca ptr, align 8
  store ptr %0, ptr %4, align 8
  store i32 %1, ptr %5, align 4
  store ptr %2, ptr %6, align 8
  %7 = load ptr, ptr %4, align 8
  %8 = load i32, ptr %5, align 4
  %9 = getelementptr inbounds %"class.cv::_InputArray", ptr %7, i32 0, i32 0
  store i32 %8, ptr %9, align 8
  %10 = load ptr, ptr %6, align 8
  %11 = getelementptr inbounds %"class.cv::_InputArray", ptr %7, i32 0, i32 1
  store ptr %10, ptr %11, align 8
  ret void
}

; Function Attrs: mustprogress nounwind uwtable
define linkonce_odr hidden void @_ZN2cv5Size_IiEC2Ev(ptr noundef nonnull align 4 dereferenceable(8) %0) unnamed_addr #2 comdat align 2 {
  %2 = alloca ptr, align 8
  store ptr %0, ptr %2, align 8
  %3 = load ptr, ptr %2, align 8
  %4 = getelementptr inbounds %"class.cv::Size_", ptr %3, i32 0, i32 0
  store i32 0, ptr %4, align 4
  %5 = getelementptr inbounds %"class.cv::Size_", ptr %3, i32 0, i32 1
  store i32 0, ptr %5, align 4
  ret void
}

; Function Attrs: mustprogress uwtable
define linkonce_odr hidden void @_ZN2cv12_OutputArrayC2ERKNS_3MatE(ptr noundef nonnull align 8 dereferenceable(24) %0, ptr noundef nonnull align 8 dereferenceable(96) %1) unnamed_addr #0 comdat align 2 {
  %3 = alloca ptr, align 8
  %4 = alloca ptr, align 8
  store ptr %0, ptr %3, align 8
  store ptr %1, ptr %4, align 8
  %5 = load ptr, ptr %3, align 8
  call void @_ZN2cv11_InputArrayC2Ev(ptr noundef nonnull align 8 dereferenceable(24) %5)
  %6 = load ptr, ptr %4, align 8
  call void @_ZN2cv11_InputArray4initEiPKv(ptr noundef nonnull align 8 dereferenceable(24) %5, i32 noundef -1040121856, ptr noundef %6)
  ret void
}

; Function Attrs: mustprogress uwtable
define linkonce_odr hidden void @_ZN2cv11_InputArrayC2ERKSt6vectorINS_3MatESaIS2_EE(ptr noundef nonnull align 8 dereferenceable(24) %0, ptr noundef nonnull align 8 dereferenceable(24) %1) unnamed_addr #0 comdat align 2 {
  %3 = alloca ptr, align 8
  %4 = alloca ptr, align 8
  store ptr %0, ptr %3, align 8
  store ptr %1, ptr %4, align 8
  %5 = load ptr, ptr %3, align 8
  %6 = getelementptr inbounds %"class.cv::_InputArray", ptr %5, i32 0, i32 2
  call void @_ZN2cv5Size_IiEC2Ev(ptr noundef nonnull align 4 dereferenceable(8) %6)
  %7 = load ptr, ptr %4, align 8
  call void @_ZN2cv11_InputArray4initEiPKv(ptr noundef nonnull align 8 dereferenceable(24) %5, i32 noundef 17104896, ptr noundef %7)
  ret void
}

; Function Attrs: mustprogress nounwind uwtable
define linkonce_odr hidden void @_ZN2cv11_InputArrayD2Ev(ptr noundef nonnull align 8 dereferenceable(24) %0) unnamed_addr #2 comdat align 2 {
  %2 = alloca ptr, align 8
  store ptr %0, ptr %2, align 8
  ret void
}

; Function Attrs: mustprogress nounwind uwtable
define linkonce_odr hidden void @_ZN2cv12_OutputArrayD2Ev(ptr noundef nonnull align 8 dereferenceable(24) %0) unnamed_addr #2 comdat align 2 {
  %2 = alloca ptr, align 8
  store ptr %0, ptr %2, align 8
  %3 = load ptr, ptr %2, align 8
  call void @_ZN2cv11_InputArrayD2Ev(ptr noundef nonnull align 8 dereferenceable(24) %3) #10
  ret void
}

; Function Attrs: mustprogress uwtable
define linkonce_odr hidden void @_ZN2cv12_OutputArrayC2ERNS_3MatE(ptr noundef nonnull align 8 dereferenceable(24) %0, ptr noundef nonnull align 8 dereferenceable(96) %1) unnamed_addr #0 comdat align 2 {
  %3 = alloca ptr, align 8
  %4 = alloca ptr, align 8
  store ptr %0, ptr %3, align 8
  store ptr %1, ptr %4, align 8
  %5 = load ptr, ptr %3, align 8
  call void @_ZN2cv11_InputArrayC2Ev(ptr noundef nonnull align 8 dereferenceable(24) %5)
  %6 = load ptr, ptr %4, align 8
  call void @_ZN2cv11_InputArray4initEiPKv(ptr noundef nonnull align 8 dereferenceable(24) %5, i32 noundef 33619968, ptr noundef %6)
  ret void
}

; Function Attrs: mustprogress uwtable
define linkonce_odr hidden void @_ZN2cv11_InputArrayC2ERKNS_3MatE(ptr noundef nonnull align 8 dereferenceable(24) %0, ptr noundef nonnull align 8 dereferenceable(96) %1) unnamed_addr #0 comdat align 2 {
  %3 = alloca ptr, align 8
  %4 = alloca ptr, align 8
  store ptr %0, ptr %3, align 8
  store ptr %1, ptr %4, align 8
  %5 = load ptr, ptr %3, align 8
  %6 = getelementptr inbounds %"class.cv::_InputArray", ptr %5, i32 0, i32 2
  call void @_ZN2cv5Size_IiEC2Ev(ptr noundef nonnull align 4 dereferenceable(8) %6)
  %7 = load ptr, ptr %4, align 8
  call void @_ZN2cv11_InputArray4initEiPKv(ptr noundef nonnull align 8 dereferenceable(24) %5, i32 noundef 16842752, ptr noundef %7)
  ret void
}

; Function Attrs: mustprogress uwtable
define hidden void @_ZN2cv7Cloning8evaluateERKNS_3MatERS1_S3_(ptr noundef nonnull align 8 dereferenceable(696) %0, ptr noundef nonnull align 8 dereferenceable(96) %1, ptr noundef nonnull align 8 dereferenceable(96) %2, ptr noundef nonnull align 8 dereferenceable(96) %3) #0 align 2 personality ptr @__gxx_personality_v0 {
  %5 = alloca ptr, align 8
  %6 = alloca ptr, align 8
  %7 = alloca ptr, align 8
  %8 = alloca ptr, align 8
  %9 = alloca %"class.cv::_InputArray", align 8
  %10 = alloca %"class.cv::_OutputArray", align 8
  %11 = alloca ptr, align 8
  %12 = alloca i32, align 4
  %13 = alloca %"class.cv::_OutputArray", align 8
  %14 = alloca %"class.cv::_InputArray", align 8
  %15 = alloca %"class.cv::_OutputArray", align 8
  store ptr %0, ptr %5, align 8
  store ptr %1, ptr %6, align 8
  store ptr %2, ptr %7, align 8
  store ptr %3, ptr %8, align 8
  %16 = load ptr, ptr %5, align 8
  %17 = load ptr, ptr %7, align 8
  call void @_ZN2cv11_InputArrayC2ERKNS_3MatE(ptr noundef nonnull align 8 dereferenceable(24) %9, ptr noundef nonnull align 8 dereferenceable(96) %17)
  %18 = load ptr, ptr %7, align 8
  invoke void @_ZN2cv12_OutputArrayC2ERNS_3MatE(ptr noundef nonnull align 8 dereferenceable(24) %10, ptr noundef nonnull align 8 dereferenceable(96) %18)
          to label %19 unwind label %37

19:                                               ; preds = %4
  %20 = invoke noundef nonnull align 8 dereferenceable(24) ptr @_ZN2cv7noArrayEv()
          to label %21 unwind label %41

21:                                               ; preds = %19
  invoke void @_ZN2cv11bitwise_notERKNS_11_InputArrayERKNS_12_OutputArrayES2_(ptr noundef nonnull align 8 dereferenceable(24) %9, ptr noundef nonnull align 8 dereferenceable(24) %10, ptr noundef nonnull align 8 dereferenceable(24) %20)
          to label %22 unwind label %41

22:                                               ; preds = %21
  call void @_ZN2cv12_OutputArrayD2Ev(ptr noundef nonnull align 8 dereferenceable(24) %10) #10
  call void @_ZN2cv11_InputArrayD2Ev(ptr noundef nonnull align 8 dereferenceable(24) %9) #10
  %23 = load ptr, ptr %7, align 8
  %24 = getelementptr inbounds %"class.cv::Cloning", ptr %16, i32 0, i32 8
  call void @_ZN2cv12_OutputArrayC2ERNS_3MatE(ptr noundef nonnull align 8 dereferenceable(24) %13, ptr noundef nonnull align 8 dereferenceable(96) %24)
  invoke void @_ZNK2cv3Mat9convertToERKNS_12_OutputArrayEidd(ptr noundef nonnull align 8 dereferenceable(96) %23, ptr noundef nonnull align 8 dereferenceable(24) %13, i32 noundef 5, double noundef 0x3F70101010101010, double noundef 0.000000e+00)
          to label %25 unwind label %46

25:                                               ; preds = %22
  call void @_ZN2cv12_OutputArrayD2Ev(ptr noundef nonnull align 8 dereferenceable(24) %13) #10
  %26 = getelementptr inbounds %"class.cv::Cloning", ptr %16, i32 0, i32 3
  %27 = getelementptr inbounds %"class.cv::Cloning", ptr %16, i32 0, i32 8
  %28 = getelementptr inbounds %"class.cv::Cloning", ptr %16, i32 0, i32 3
  call void @_ZNK2cv7Cloning12arrayProductERKNS_3MatES3_RS1_(ptr noundef nonnull align 8 dereferenceable(696) %16, ptr noundef nonnull align 8 dereferenceable(96) %26, ptr noundef nonnull align 8 dereferenceable(96) %27, ptr noundef nonnull align 8 dereferenceable(96) %28)
  %29 = getelementptr inbounds %"class.cv::Cloning", ptr %16, i32 0, i32 4
  %30 = getelementptr inbounds %"class.cv::Cloning", ptr %16, i32 0, i32 8
  %31 = getelementptr inbounds %"class.cv::Cloning", ptr %16, i32 0, i32 4
  call void @_ZNK2cv7Cloning12arrayProductERKNS_3MatES3_RS1_(ptr noundef nonnull align 8 dereferenceable(696) %16, ptr noundef nonnull align 8 dereferenceable(96) %29, ptr noundef nonnull align 8 dereferenceable(96) %30, ptr noundef nonnull align 8 dereferenceable(96) %31)
  %32 = load ptr, ptr %6, align 8
  call void @_ZN2cv7Cloning7poissonERKNS_3MatE(ptr noundef nonnull align 8 dereferenceable(696) %16, ptr noundef nonnull align 8 dereferenceable(96) %32)
  %33 = getelementptr inbounds %"class.cv::Cloning", ptr %16, i32 0, i32 2
  call void @_ZN2cv11_InputArrayC2ERKSt6vectorINS_3MatESaIS2_EE(ptr noundef nonnull align 8 dereferenceable(24) %14, ptr noundef nonnull align 8 dereferenceable(24) %33)
  %34 = load ptr, ptr %8, align 8
  invoke void @_ZN2cv12_OutputArrayC2ERKNS_3MatE(ptr noundef nonnull align 8 dereferenceable(24) %15, ptr noundef nonnull align 8 dereferenceable(96) %34)
          to label %35 unwind label %50

35:                                               ; preds = %25
  invoke void @_ZN2cv5mergeERKNS_11_InputArrayERKNS_12_OutputArrayE(ptr noundef nonnull align 8 dereferenceable(24) %14, ptr noundef nonnull align 8 dereferenceable(24) %15)
          to label %36 unwind label %54

36:                                               ; preds = %35
  call void @_ZN2cv12_OutputArrayD2Ev(ptr noundef nonnull align 8 dereferenceable(24) %15) #10
  call void @_ZN2cv11_InputArrayD2Ev(ptr noundef nonnull align 8 dereferenceable(24) %14) #10
  ret void

37:                                               ; preds = %4
  %38 = landingpad { ptr, i32 }
          cleanup
  %39 = extractvalue { ptr, i32 } %38, 0
  store ptr %39, ptr %11, align 8
  %40 = extractvalue { ptr, i32 } %38, 1
  store i32 %40, ptr %12, align 4
  br label %45

41:                                               ; preds = %21, %19
  %42 = landingpad { ptr, i32 }
          cleanup
  %43 = extractvalue { ptr, i32 } %42, 0
  store ptr %43, ptr %11, align 8
  %44 = extractvalue { ptr, i32 } %42, 1
  store i32 %44, ptr %12, align 4
  call void @_ZN2cv12_OutputArrayD2Ev(ptr noundef nonnull align 8 dereferenceable(24) %10) #10
  br label %45

45:                                               ; preds = %41, %37
  call void @_ZN2cv11_InputArrayD2Ev(ptr noundef nonnull align 8 dereferenceable(24) %9) #10
  br label %59

46:                                               ; preds = %22
  %47 = landingpad { ptr, i32 }
          cleanup
  %48 = extractvalue { ptr, i32 } %47, 0
  store ptr %48, ptr %11, align 8
  %49 = extractvalue { ptr, i32 } %47, 1
  store i32 %49, ptr %12, align 4
  call void @_ZN2cv12_OutputArrayD2Ev(ptr noundef nonnull align 8 dereferenceable(24) %13) #10
  br label %59

50:                                               ; preds = %25
  %51 = landingpad { ptr, i32 }
          cleanup
  %52 = extractvalue { ptr, i32 } %51, 0
  store ptr %52, ptr %11, align 8
  %53 = extractvalue { ptr, i32 } %51, 1
  store i32 %53, ptr %12, align 4
  br label %58

54:                                               ; preds = %35
  %55 = landingpad { ptr, i32 }
          cleanup
  %56 = extractvalue { ptr, i32 } %55, 0
  store ptr %56, ptr %11, align 8
  %57 = extractvalue { ptr, i32 } %55, 1
  store i32 %57, ptr %12, align 4
  call void @_ZN2cv12_OutputArrayD2Ev(ptr noundef nonnull align 8 dereferenceable(24) %15) #10
  br label %58

58:                                               ; preds = %54, %50
  call void @_ZN2cv11_InputArrayD2Ev(ptr noundef nonnull align 8 dereferenceable(24) %14) #10
  br label %59

59:                                               ; preds = %58, %46, %45
  %60 = load ptr, ptr %11, align 8
  %61 = load i32, ptr %12, align 4
  %62 = insertvalue { ptr, i32 } poison, ptr %60, 0
  %63 = insertvalue { ptr, i32 } %62, i32 %61, 1
  resume { ptr, i32 } %63
}

; Function Attrs: mustprogress uwtable
define hidden void @_ZN2cv7Cloning16localColorChangeERNS_3MatES2_S2_S2_fff(ptr noundef nonnull align 8 dereferenceable(696) %0, ptr noundef nonnull align 8 dereferenceable(96) %1, ptr noundef nonnull align 8 dereferenceable(96) %2, ptr noundef nonnull align 8 dereferenceable(96) %3, ptr noundef nonnull align 8 dereferenceable(96) %4, float noundef %5, float noundef %6, float noundef %7) #0 align 2 personality ptr @__gxx_personality_v0 {
  %9 = alloca ptr, align 8
  %10 = alloca ptr, align 8
  %11 = alloca ptr, align 8
  %12 = alloca ptr, align 8
  %13 = alloca ptr, align 8
  %14 = alloca float, align 4
  %15 = alloca float, align 4
  %16 = alloca float, align 4
  %17 = alloca %"class.cv::Mat", align 8
  %18 = alloca ptr, align 8
  %19 = alloca i32, align 4
  %20 = alloca %"class.cv::Mat", align 8
  store ptr %0, ptr %9, align 8
  store ptr %1, ptr %10, align 8
  store ptr %2, ptr %11, align 8
  store ptr %3, ptr %12, align 8
  store ptr %4, ptr %13, align 8
  store float %5, ptr %14, align 4
  store float %6, ptr %15, align 4
  store float %7, ptr %16, align 4
  %21 = load ptr, ptr %9, align 8
  %22 = load ptr, ptr %10, align 8
  %23 = load ptr, ptr %11, align 8
  %24 = load ptr, ptr %12, align 8
  call void @_ZN2cv7Cloning18computeDerivativesERKNS_3MatES3_RS1_(ptr noundef nonnull align 8 dereferenceable(696) %21, ptr noundef nonnull align 8 dereferenceable(96) %22, ptr noundef nonnull align 8 dereferenceable(96) %23, ptr noundef nonnull align 8 dereferenceable(96) %24)
  %25 = getelementptr inbounds %"class.cv::Cloning", ptr %21, i32 0, i32 5
  %26 = getelementptr inbounds %"class.cv::Cloning", ptr %21, i32 0, i32 7
  %27 = getelementptr inbounds %"class.cv::Cloning", ptr %21, i32 0, i32 5
  call void @_ZNK2cv7Cloning12arrayProductERKNS_3MatES3_RS1_(ptr noundef nonnull align 8 dereferenceable(696) %21, ptr noundef nonnull align 8 dereferenceable(96) %25, ptr noundef nonnull align 8 dereferenceable(96) %26, ptr noundef nonnull align 8 dereferenceable(96) %27)
  %28 = getelementptr inbounds %"class.cv::Cloning", ptr %21, i32 0, i32 6
  %29 = getelementptr inbounds %"class.cv::Cloning", ptr %21, i32 0, i32 7
  %30 = getelementptr inbounds %"class.cv::Cloning", ptr %21, i32 0, i32 6
  call void @_ZNK2cv7Cloning12arrayProductERKNS_3MatES3_RS1_(ptr noundef nonnull align 8 dereferenceable(696) %21, ptr noundef nonnull align 8 dereferenceable(96) %28, ptr noundef nonnull align 8 dereferenceable(96) %29, ptr noundef nonnull align 8 dereferenceable(96) %30)
  %31 = getelementptr inbounds %"class.cv::Cloning", ptr %21, i32 0, i32 5
  call void @_ZN2cv3MatC1ERKS0_(ptr noundef nonnull align 8 dereferenceable(96) %17, ptr noundef nonnull align 8 dereferenceable(96) %31)
  %32 = load float, ptr %14, align 4
  %33 = load float, ptr %15, align 4
  %34 = load float, ptr %16, align 4
  invoke void @_ZN2cv7Cloning13scalarProductENS_3MatEfff(ptr noundef nonnull align 8 dereferenceable(696) %21, ptr noundef %17, float noundef %32, float noundef %33, float noundef %34)
          to label %35 unwind label %44

35:                                               ; preds = %8
  call void @_ZN2cv3MatD1Ev(ptr noundef nonnull align 8 dereferenceable(96) %17) #10
  %36 = getelementptr inbounds %"class.cv::Cloning", ptr %21, i32 0, i32 6
  call void @_ZN2cv3MatC1ERKS0_(ptr noundef nonnull align 8 dereferenceable(96) %20, ptr noundef nonnull align 8 dereferenceable(96) %36)
  %37 = load float, ptr %14, align 4
  %38 = load float, ptr %15, align 4
  %39 = load float, ptr %16, align 4
  invoke void @_ZN2cv7Cloning13scalarProductENS_3MatEfff(ptr noundef nonnull align 8 dereferenceable(696) %21, ptr noundef %20, float noundef %37, float noundef %38, float noundef %39)
          to label %40 unwind label %48

40:                                               ; preds = %35
  call void @_ZN2cv3MatD1Ev(ptr noundef nonnull align 8 dereferenceable(96) %20) #10
  %41 = load ptr, ptr %10, align 8
  %42 = load ptr, ptr %12, align 8
  %43 = load ptr, ptr %13, align 8
  call void @_ZN2cv7Cloning8evaluateERKNS_3MatERS1_S3_(ptr noundef nonnull align 8 dereferenceable(696) %21, ptr noundef nonnull align 8 dereferenceable(96) %41, ptr noundef nonnull align 8 dereferenceable(96) %42, ptr noundef nonnull align 8 dereferenceable(96) %43)
  ret void

44:                                               ; preds = %8
  %45 = landingpad { ptr, i32 }
          cleanup
  %46 = extractvalue { ptr, i32 } %45, 0
  store ptr %46, ptr %18, align 8
  %47 = extractvalue { ptr, i32 } %45, 1
  store i32 %47, ptr %19, align 4
  call void @_ZN2cv3MatD1Ev(ptr noundef nonnull align 8 dereferenceable(96) %17) #10
  br label %52

48:                                               ; preds = %35
  %49 = landingpad { ptr, i32 }
          cleanup
  %50 = extractvalue { ptr, i32 } %49, 0
  store ptr %50, ptr %18, align 8
  %51 = extractvalue { ptr, i32 } %49, 1
  store i32 %51, ptr %19, align 4
  call void @_ZN2cv3MatD1Ev(ptr noundef nonnull align 8 dereferenceable(96) %20) #10
  br label %52

52:                                               ; preds = %48, %44
  %53 = load ptr, ptr %18, align 8
  %54 = load i32, ptr %19, align 4
  %55 = insertvalue { ptr, i32 } poison, ptr %53, 0
  %56 = insertvalue { ptr, i32 } %55, i32 %54, 1
  resume { ptr, i32 } %56
}