; Function Attrs: mustprogress uwtable
define hidden void @_ZN2cv7Cloning16localColorChangeERNS_3MatES2_S2_S2_fff(ptr noundef nonnull align 8 dereferenceable(696) %0, ptr noundef nonnull align 8 dereferenceable(96) %1, ptr noundef nonnull align 8 dereferenceable(96) %2, ptr noundef nonnull align 8 dereferenceable(96) %3, ptr noundef nonnull align 8 dereferenceable(96) %4, float noundef %5, float noundef %6, float noundef %7) local_unnamed_addr #0 align 2 personality ptr @__gxx_personality_v0 {
  %9 = alloca %"class.cv::_InputArray", align 8
  %10 = alloca %"class.cv::_OutputArray", align 8
  %11 = alloca %"class.cv::_OutputArray", align 8
  %12 = alloca %"class.cv::_InputArray", align 8
  %13 = alloca %"class.cv::_OutputArray", align 8
  %14 = alloca %"class.cv::Mat", align 8
  %15 = alloca %"class.cv::Mat", align 8
  tail call void @_ZN2cv7Cloning18computeDerivativesERKNS_3MatES3_RS1_(ptr noundef nonnull align 8 dereferenceable(696) %0, ptr noundef nonnull align 8 dereferenceable(96) %1, ptr noundef nonnull align 8 dereferenceable(96) %2, ptr noundef nonnull align 8 dereferenceable(96) %3)
  %16 = getelementptr inbounds i8, ptr %0, i64 264
  %17 = getelementptr inbounds i8, ptr %0, i64 456
  tail call void @_ZNK2cv7Cloning12arrayProductERKNS_3MatES3_RS1_(ptr nonnull align 8 poison, ptr noundef nonnull align 8 dereferenceable(96) %16, ptr noundef nonnull align 8 dereferenceable(96) %17, ptr noundef nonnull align 8 dereferenceable(96) %16)
  %18 = getelementptr inbounds i8, ptr %0, i64 360
  tail call void @_ZNK2cv7Cloning12arrayProductERKNS_3MatES3_RS1_(ptr nonnull align 8 poison, ptr noundef nonnull align 8 dereferenceable(96) %18, ptr noundef nonnull align 8 dereferenceable(96) %17, ptr noundef nonnull align 8 dereferenceable(96) %18)
  call void @_ZN2cv3MatC1ERKS0_(ptr noundef nonnull align 8 dereferenceable(96) %14, ptr noundef nonnull align 8 dereferenceable(96) %16)
  invoke void @_ZN2cv7Cloning13scalarProductENS_3MatEfff(ptr nonnull align 8 poison, ptr noundef nonnull %14, float noundef %5, float noundef %6, float noundef %7)
          to label %19 unwind label %38

19:                                               ; preds = %8
  call void @_ZN2cv3MatD1Ev(ptr noundef nonnull align 8 dereferenceable(96) %14) #14
  call void @_ZN2cv3MatC1ERKS0_(ptr noundef nonnull align 8 dereferenceable(96) %15, ptr noundef nonnull align 8 dereferenceable(96) %18)
  invoke void @_ZN2cv7Cloning13scalarProductENS_3MatEfff(ptr nonnull align 8 poison, ptr noundef nonnull %15, float noundef %5, float noundef %6, float noundef %7)
          to label %20 unwind label %40

20:                                               ; preds = %19
  call void @_ZN2cv3MatD1Ev(ptr noundef nonnull align 8 dereferenceable(96) %15) #14
  call void @llvm.lifetime.start.p0(i64 24, ptr nonnull %9)
  call void @llvm.lifetime.start.p0(i64 24, ptr nonnull %10)
  call void @llvm.lifetime.start.p0(i64 24, ptr nonnull %11)
  call void @llvm.lifetime.start.p0(i64 24, ptr nonnull %12)
  call void @llvm.lifetime.start.p0(i64 24, ptr nonnull %13)
  %21 = getelementptr inbounds i8, ptr %9, i64 16
  store i32 0, ptr %21, align 8
  %22 = getelementptr inbounds i8, ptr %9, i64 20
  store i32 0, ptr %22, align 4
  store i32 16842752, ptr %9, align 8
  %23 = getelementptr inbounds i8, ptr %9, i64 8
  store ptr %3, ptr %23, align 8
  %24 = getelementptr inbounds i8, ptr %10, i64 8
  %25 = getelementptr inbounds i8, ptr %10, i64 16
  store i64 0, ptr %25, align 8
  store i32 33619968, ptr %10, align 8
  store ptr %3, ptr %24, align 8
  %26 = call noundef nonnull align 8 dereferenceable(24) ptr @_ZN2cv7noArrayEv()
  call void @_ZN2cv11bitwise_notERKNS_11_InputArrayERKNS_12_OutputArrayES2_(ptr noundef nonnull align 8 dereferenceable(24) %9, ptr noundef nonnull align 8 dereferenceable(24) %10, ptr noundef nonnull align 8 dereferenceable(24) %26)
  %27 = getelementptr inbounds i8, ptr %0, i64 552
  %28 = getelementptr inbounds i8, ptr %11, i64 8
  %29 = getelementptr inbounds i8, ptr %11, i64 16
  store i64 0, ptr %29, align 8
  store i32 33619968, ptr %11, align 8
  store ptr %27, ptr %28, align 8
  call void @_ZNK2cv3Mat9convertToERKNS_12_OutputArrayEidd(ptr noundef nonnull align 8 dereferenceable(96) %3, ptr noundef nonnull align 8 dereferenceable(24) %11, i32 noundef 5, double noundef 0x3F70101010101010, double noundef 0.000000e+00)
  %30 = getelementptr inbounds i8, ptr %0, i64 72
  call void @_ZNK2cv7Cloning12arrayProductERKNS_3MatES3_RS1_(ptr nonnull align 8 poison, ptr noundef nonnull align 8 dereferenceable(96) %30, ptr noundef nonnull align 8 dereferenceable(96) %27, ptr noundef nonnull align 8 dereferenceable(96) %30)
  %31 = getelementptr inbounds i8, ptr %0, i64 168
  call void @_ZNK2cv7Cloning12arrayProductERKNS_3MatES3_RS1_(ptr nonnull align 8 poison, ptr noundef nonnull align 8 dereferenceable(96) %31, ptr noundef nonnull align 8 dereferenceable(96) %27, ptr noundef nonnull align 8 dereferenceable(96) %31)
  call void @_ZN2cv7Cloning7poissonERKNS_3MatE(ptr noundef nonnull align 8 dereferenceable(696) %0, ptr noundef nonnull align 8 dereferenceable(96) %1)
  %32 = getelementptr inbounds i8, ptr %0, i64 48
  %33 = getelementptr inbounds i8, ptr %12, i64 16
  store i32 0, ptr %33, align 8
  %34 = getelementptr inbounds i8, ptr %12, i64 20
  store i32 0, ptr %34, align 4
  store i32 17104896, ptr %12, align 8
  %35 = getelementptr inbounds i8, ptr %12, i64 8
  store ptr %32, ptr %35, align 8
  %36 = getelementptr inbounds i8, ptr %13, i64 8
  %37 = getelementptr inbounds i8, ptr %13, i64 16
  store i64 0, ptr %37, align 8
  store i32 -1040121856, ptr %13, align 8
  store ptr %4, ptr %36, align 8
  call void @_ZN2cv5mergeERKNS_11_InputArrayERKNS_12_OutputArrayE(ptr noundef nonnull align 8 dereferenceable(24) %12, ptr noundef nonnull align 8 dereferenceable(24) %13)
  call void @llvm.lifetime.end.p0(i64 24, ptr nonnull %9)
  call void @llvm.lifetime.end.p0(i64 24, ptr nonnull %10)
  call void @llvm.lifetime.end.p0(i64 24, ptr nonnull %11)
  call void @llvm.lifetime.end.p0(i64 24, ptr nonnull %12)
  call void @llvm.lifetime.end.p0(i64 24, ptr nonnull %13)
  ret void

38:                                               ; preds = %8
  %39 = landingpad { ptr, i32 }
          cleanup
  br label %42

40:                                               ; preds = %19
  %41 = landingpad { ptr, i32 }
          cleanup
  br label %42

42:                                               ; preds = %40, %38
  %.sink = phi ptr [ %15, %40 ], [ %14, %38 ]
  %.pn = phi { ptr, i32 } [ %41, %40 ], [ %39, %38 ]
  call void @_ZN2cv3MatD1Ev(ptr noundef nonnull align 8 dereferenceable(96) %.sink) #14
  resume { ptr, i32 } %.pn
}